; Function Attrs: nounwind uwtable
define internal fastcc noundef ptr @create_group_result_plan(ptr noundef %0, ptr noundef readonly captures(none) %1) unnamed_addr #0 {
  %3 = tail call fastcc ptr @build_path_tlist(ptr noundef %0, ptr noundef %1)
  %4 = getelementptr inbounds nuw i8, ptr %1, i64 80
  %5 = load ptr, ptr %4, align 8
  %6 = tail call fastcc ptr @order_qual_clauses(ptr noundef %0, ptr noundef %5)
  %7 = tail call noundef ptr @palloc0(i64 noundef 112) #12
  store i32 330, ptr %7, align 4
  %8 = getelementptr inbounds nuw i8, ptr %7, i64 48
  store ptr %3, ptr %8, align 8
  %9 = getelementptr inbounds nuw i8, ptr %7, i64 56
  %10 = getelementptr inbounds nuw i8, ptr %7, i64 104
  tail call void @llvm.memset.p0.i64(ptr noundef nonnull align 8 dereferenceable(24) %9, i8 0, i64 24, i1 false)
  store ptr %6, ptr %10, align 8
  %11 = getelementptr inbounds nuw i8, ptr %1, i64 48
  %12 = load i32, ptr %11, align 8
  %13 = getelementptr inbounds nuw i8, ptr %7, i64 4
  store i32 %12, ptr %13, align 4
  %14 = getelementptr inbounds nuw i8, ptr %1, i64 56
  %15 = load double, ptr %14, align 8
  %16 = getelementptr inbounds nuw i8, ptr %7, i64 8
  store double %15, ptr %16, align 8
  %17 = getelementptr inbounds nuw i8, ptr %1, i64 64
  %18 = load double, ptr %17, align 8
  %19 = getelementptr inbounds nuw i8, ptr %7, i64 16
  store double %18, ptr %19, align 8
  %20 = getelementptr inbounds nuw i8, ptr %1, i64 40
  %21 = load double, ptr %20, align 8
  %22 = getelementptr inbounds nuw i8, ptr %7, i64 24
  store double %21, ptr %22, align 8
  %23 = getelementptr inbounds nuw i8, ptr %1, i64 16
  %24 = load ptr, ptr %23, align 8
  %25 = getelementptr inbounds nuw i8, ptr %24, i64 40
  %26 = load i32, ptr %25, align 8
  %27 = getelementptr inbounds nuw i8, ptr %7, i64 32
  store i32 %26, ptr %27, align 8
  %28 = getelementptr inbounds nuw i8, ptr %1, i64 32
  %29 = load i8, ptr %28, align 8, !range !4, !noundef !5
  %30 = getelementptr inbounds nuw i8, ptr %7, i64 36
  store i8 %29, ptr %30, align 4
  %31 = getelementptr inbounds nuw i8, ptr %1, i64 33
  %32 = load i8, ptr %31, align 1, !range !4, !noundef !5
  %33 = getelementptr inbounds nuw i8, ptr %7, i64 37
  store i8 %32, ptr %33, align 1
  ret ptr %7
}